(dp1
S'output'
p2
S'missing "pass" in view'
p3
sS'layer'
p4
S'ParserContainer'
p5
sS'code'
p6
S'response.write(\'<!DOCTYPE html>\\n<!--[if (gt IE 9)|!(IE)]><!--> <html class="no-js" lang="\', escape=False)\nresponse.write(T.accepted_language or \'en\')\nresponse.write(\'"> <!--<![endif]-->\\n  <head>\\n    <meta charset="utf-8">\\n    <!-- www.phpied.com/conditional-comments-block-downloads/ -->\\n    <!-- Always force latest IE rendering engine\\n         (even in intranet) & Chrome Frame\\n         Remove this if you use the .htaccess -->\\n    <meta http-equiv="X-UA-Compatible" content="IE=edge\', escape=False)\nresponse.write(not request.is_local and \',chrome=1\' or \'\')\nresponse.write(\'">\\n    <!--  Mobile Viewport Fix\\n          j.mp/mobileviewport & davidbcalhoun.com/2010/viewport-metatag\\n          device-width: Occupy full width of the screen in its current orientation\\n          initial-scale = 1.0 retains dimensions instead of zooming out if page height > device height\\n          user-scalable = yes allows the user to zoom in -->\\n    <meta name="viewport" content="width=device-width, initial-scale=1.0">\\n    <title>\', escape=False)\nresponse.write(response.title or request.application)\nresponse.write(\'</title>\\n    <!-- http://dev.w3.org/html5/markup/meta.name.html -->\\n    <meta name="application-name" content="\', escape=False)\nresponse.write(request.application)\nresponse.write(\'">\\n    <!-- Speaking of Google, don\\\'t forget to set your site up:\\n         http://google.com/webmasters -->\\n    <meta name="google-site-verification" content="">\\n    <!-- include stylesheets -->\\n    <link rel="stylesheet" href="\', escape=False)\nresponse.write(URL(\'static\',\'css/bootstrap.min.css\'))\nresponse.write(\'"/>\\n    <link rel="stylesheet" href="\', escape=False)\nresponse.write(URL(\'static\',\'css/web2py-bootstrap3.css\'))\nresponse.write(\'"/>\\n    <link rel="shortcut icon" href="\', escape=False)\nresponse.write(URL(\'static\',\'images/favicon.ico\'))\nresponse.write(\'" type="image/x-icon">\\n    <link rel="apple-touch-icon" href="\', escape=False)\nresponse.write(URL(\'static\',\'images/favicon.png\'))\nresponse.write(\'">\\n    <!-- All JavaScript at the bottom, except for Modernizr which enables\\n         HTML5 elements & feature detects -->\\n    <script src="\', escape=False)\nresponse.write(URL(\'static\',\'js/modernizr-2.8.3.min.js\'))\nresponse.write(\'"></script>\\n    <!--[if lt IE 9]>\\n        <script src="\', escape=False)\nresponse.write(URL(\'static\',\'js/respond-1.4.2.min.js\'))\nresponse.write(\'"></script>\\n        <![endif]-->\\n    <!-- Favicons -->\\n    \', escape=False)\nresponse.write(\'<script type="text/javascript"><!--\\n    // These variables are used by the web2py_ajax_init function in web2py_ajax.js (which is loaded below).\\n    var w2p_ajax_confirm_message = "\', escape=False)\nresponse.write(T(\'Are you sure you want to delete this object?\'))\nresponse.write(\'";\\n    var w2p_ajax_disable_with_message = "\', escape=False)\nresponse.write(T(\'Working...\'))\nresponse.write(\'";\\n    var w2p_ajax_date_format = "\', escape=False)\nresponse.write(T(\'%Y-%m-%d\'))\nresponse.write(\'";\\n    var w2p_ajax_datetime_format = "\', escape=False)\nresponse.write(T(\'%Y-%m-%d %H:%M:%S\'))\nresponse.write(\'";\\n    var ajax_error_500 = \\\'\', escape=False)\nresponse.write(T.M(\'An error occured, please [[reload %s]] the page\') % URL(args=request.args, vars=request.get_vars))\nresponse.write("\'\\n    //--></script>\\n", escape=False)\nresponse.files.insert(0,URL(\'static\',\'js/jquery.js\'))\nresponse.files.insert(1,URL(\'static\',\'css/calendar.css\'))\nresponse.files.insert(2,URL(\'static\',\'js/calendar.js\'))\nresponse.files.insert(3,URL(\'static\',\'js/web2py.js\'))\nresponse.include_meta()\nresponse.include_files()\nresponse.write(\'\\n\', escape=False)\nresponse.write(\' <!-- this includes jquery.js, calendar.js/.css and web2py.js -->\\n    \', escape=False)\nresponse.write(\'\\n    \', escape=False)\n# using sidebars need to know what sidebar you want to use\nmc0 = \'col-md-12\'\nmc1 = \'col-md-9\'\nmc2 = \'col-md-6\'\nleft_sidebar_enabled = globals().get(\'left_sidebar_enabled\', False)\nright_sidebar_enabled = globals().get(\'right_sidebar_enabled\', False)\nmiddle_column = {0: mc0, 1: mc1, 2: mc2}[\n(left_sidebar_enabled and 1 or 0)+(right_sidebar_enabled and 1 or 0)]\nresponse.write(\'\\n  </head>\\n  <body>\\n    <!--[if lt IE 8]><p class="browserupgrade">You are using an <strong>outdated</strong> browser. Please <a href="http://browsehappy.com/">upgrade your browser</a> to improve your experience.</p><![endif]-->\\n    <div class="w2p_flash alert alert-dismissable">\', escape=False)\nresponse.write(response.flash or \'\')\nresponse.write(\'</div>\\n    <!-- Navbar ======================================= -->\\n    <nav class="navbar navbar-default navbar-fixed-top" role="navigation">\\n      <div class="container-fluid">\\n        <div class="navbar-header">\\n          <button type="button" class="navbar-toggle" data-toggle="collapse" data-target=".navbar-collapse">\\n            <span class="sr-only">Toggle navigation</span>\\n            <span class="icon-bar"></span>\\n            <span class="icon-bar"></span>\\n            <span class="icon-bar"></span>\\n          </button>\\n          \', escape=False)\nresponse.write(response.logo or \'\')\nresponse.write(\'\\n        </div>\\n        <div class="collapse navbar-collapse navbar-ex1-collapse">\\n          <ul class="nav navbar-nav navbar-right">\\n            \', escape=False)\nresponse.write(\'auth\' in globals() and auth.navbar(\'Welcome\',mode=\'dropdown\') or \'\')\nresponse.write(\'\\n          </ul>\\n          \', escape=False)\nif response.menu:\n    response.write(\'\\n          \', escape=False)\n    response.write(MENU(response.menu, _class=\'nav navbar-nav\',li_class=\'dropdown\',ul_class=\'dropdown-menu\'))\n    response.write(\'\\n          \', escape=False)\n    pass\nresponse.write(\'\\n        </div>\\n      </div>\\n    </nav>\\n    <!-- Masthead ===================================== -->    \\n    \', escape=False)\nresponse.write(\'\\n    \', escape=False)\nresponse.write(\'\\n    <!-- Main ========================================= -->\\n    <!-- Begin page content -->\\n    <div class="container-fluid main-container">\\n      \', escape=False)\nif left_sidebar_enabled:\n    response.write(\'\\n        <div class="col-md-3 left-sidebar">\\n            \', escape=False)\n    response.write(\'\\n            <h3>Left Sidebar</h3>\\n            <p></p>\\n            \', escape=False)\n    response.write(\'\\n        </div>\\n      \', escape=False)\n    pass\nresponse.write(\'\\n\\n      <div class="\', escape=False)\nresponse.write(middle_column)\nresponse.write(\'">\\n        \', escape=False)\nresponse.write(\'\\n        \', escape=False)\nresponse.write(\'\\n\\n  \', escape=False)\ndef is_following(follower, followee):\n    if db((db.follows.follower == follower) & (db.follows.followee == followee)).count():\n        return True\n    else:\n        return False\n    pass\ndef follow_url(follower, followee):\n    return URL(\'default\', \'follow\')\npass\nresponse.write(\'\\n\\n<body onload="checkList()">\\n<h1>\', escape=False)\nresponse.write(name)\nresponse.write(\'</h1>\\n<!-- TODO change this -->\\n\', escape=False)\nif auth.user is not None and str(auth.user.id) != request.args[0]:\n    response.write(\'\\n  <button id="btn-unfollow" class="hidden" onclick="unfollow()">Unfollow</button>\\n  <button id="btn-follow" onclick="follow()">Follow</button>\\n\', escape=False)\n    pass\nresponse.write(\'\\n<div id ="main_body" name="main_body" title="etc etc"> \\n  <div id="prof_pic" name="prof_pic" title="Profile Picture">\\n    <img src = \', escape=False)\nresponse.write(URL(\'default\', \'download\', args=picture ))\nresponse.write(\' style="width:341px;height:256px;" />\\n  </div>\\n  <div id="profile_description" name="profile_description" title="Profile Description">\\n    <p><h3>Description</h3></p>\\n    <p>Gender: \', escape=False)\nresponse.write(gender)\nresponse.write(\'</p>\\n    <p>Experance: \', escape=False)\nresponse.write(experance)\nresponse.write(\'</p>\\n    <p>description: \', escape=False)\nresponse.write(description)\nresponse.write(\'</p>\\n  </div>\\n</div>\\n<h3>Itineraries</h3>\\n\', escape=False)\nfor it in its:\n    response.write(\'\\n\', escape=False)\n    if it.ownerA.first_name == user.first_name:\n        response.write(\'\\n\', escape=False)\n        response.write(LI(A(it.it_name, _href=URL("showIts", args=it))))\n        response.write(\'\\n\', escape=False)\n        pass\n    response.write(\'\\n<!--<script type="text/javascript">\\n  function checkList()\\n  {\\n    ajax(\\\'\', escape=False)\n    response.write(URL(\'default\',\'updateItOnView\'))\n    response.write(\'\\\', [\\\'blank\\\'], \\\':eval\\\');\\n    return false;\\n  }-->\\n</script>\\n<div id="iter_body" name="iter_body" title="body for iter">\\n<div id = "target"></div>\\n<div id = "blank"></div>\\n<form id = \\\'itForm\\\'>\\n  <h3>Itinerarie Name? </h3>\\n  <input type = "text" name = "d_name" ></input><br>\\n  <h3>Location Staying? </h3>\\n  <input type = "text" name = "d_location" ></input><br>\\n  <h3>Trip starts? </h3>\\n  <input type = "date" name = "d_start_date"></input><br>\\n  <h3>Trip ends? </h3>\\n  <input tpye = "date" name = "d_end_date"></input><br>\\n  <h3>Few words or comments about this trip? </h3> \\n  <input type = "text" name = "d_description"></input><br>\\n  <input type = "button" value = "Submit" onclick="callAjax()" />\\n</form>\\n</div>\\n<script>\\n  function callAjax()\\n  {\\n    ajax(\\\'\', escape=False)\n    response.write(URL(\'default\',\'doStuff\'))\n    response.write(\'\\\', [\\\'d_name\\\',\\\'d_location\\\', \\\'d_start_date\\\', \\\'d_end_date\\\', \\\'d_description\\\'], \\\':eval\\\');\\n    return false;\\n  }\\n</script>\\n</div>\\n\\n\\n<h3>Followers</h3>\\n<ul id="followers-list">\\n\', escape=False)\n    for f in followers:\n        response.write(\'\\n  <li \', escape=False)\n        if auth.user is not None and f.follower.id == auth.user.id:\n            response.write(\' id="follower-me" \', escape=False)\n            pass\n        response.write(\'>\\n    <a href="\', escape=False)\n        response.write(f.follower.id)\n        response.write(\'">\', escape=False)\n        response.write(f.follower.first_name)\n        response.write(\' \', escape=False)\n        response.write(f.follower.last_name)\n        response.write(\'</a>\\n  </li>\\n  \', escape=False)\n        pass\n    response.write(\'\\n</ul>\\n  <h3>Following</h3>\\n  <ul id="following-list">\\n  \', escape=False)\n    for f in following:\n        response.write(\'\\n  <li><a href="\', escape=False)\n        response.write(f.followee.id)\n        response.write(\'">\', escape=False)\n        response.write(f.followee.first_name)\n        response.write(\' \', escape=False)\n        response.write(f.followee.last_name)\n        response.write(\'</a></li>\\n  \', escape=False)\n        pass\n    response.write(\'\\n  </ul>\\n\\n  <!--\', escape=False)\n    response.write(\'\\n  </body>\\n\', escape=False)\n    response.write(\'\\n        \', escape=False)\n    response.write(\'\\n      </div>\\n\\n      \', escape=False)\n    if right_sidebar_enabled:\n        response.write(\'\\n        <div class="col-md-3">\\n            \', escape=False)\n        response.write(\'\\n            <h3>Right Sidebar</h3>\\n            <p></p>\\n            \', escape=False)\n        response.write(\'\\n        </div>\\n      \', escape=False)\n        pass\n    response.write(\'\\n\\n    </div>\\n\\n    \', escape=False)\n    response.write(\' <!-- this is default footer -->      \\n    <footer class="footer">\\n      <div class="container-fluid">\\n        <div class="copyright pull-left">\', escape=False)\n    response.write(T(\'Copyright\'))\n    response.write(\' &#169; \', escape=False)\n    response.write(request.now.year)\n    response.write(\'</div>\\n          <div id="poweredBy" class="pull-right">\\n            \', escape=False)\n    response.write(T(\'Powered by\'))\n    response.write(\'\\n            <a href="http://www.web2py.com/">web2py</a>\\n          </div>\\n      </div>\\n    </footer>\\n    \', escape=False)\n    response.write(\'\\n    <!-- The javascript =============================== -->\\n    <script src="\', escape=False)\n    response.write(URL(\'static\',\'js/bootstrap.min.js\'))\n    response.write(\'"></script>\\n    <script src="\', escape=False)\n    response.write(URL(\'static\',\'js/web2py-bootstrap3.js\'))\n    response.write(\'"></script>\\n    \', escape=False)\n    response.write(\'-->\\n  \', escape=False)\n    if auth.user is not None and str(auth.user.id) != request.args[0]:\n        response.write(\'\\n\\n  <script type="text/javascript">\\n    var following = \\\'True\\\' == \\\'\', escape=False)\n        response.write(is_following(auth.user.id, request.args[0]))\n        response.write(\'\\\';\\n\\n    var btn_unfollow = $("#btn-unfollow");\\n    var btn_follow = $("#btn-follow");\\n\\n    function toggle_buttons() {\\n      btn_follow.toggleClass("hidden");\\n      btn_unfollow.toggleClass("hidden");\\n    }\\n\\n    if (following) {\\n      toggle_buttons();\\n    }\\n\\n    function unfollow() {\\n      follow_submit("unfollow", function() {toggle_buttons(); $(\\\'#follower-me\\\').remove();});\\n    }\\n\\n    function follow() {\\n      function successful_follow() {\\n        toggle_buttons();\\n        var li = "<li id=\\\'follower-me\\\'><a href=\\\'\', escape=False)\n        response.write(auth.user.id)\n        response.write("\'>", escape=False)\n        response.write(auth.user.first_name)\n        response.write(\' \', escape=False)\n        response.write(auth.user.last_name)\n        response.write(\'</a></li>";\\n        $("#followers-list").prepend(li);\\n      }\\n      follow_submit("follow", successful_follow());\\n    }\\n\\n    function follow_submit(action, success_action) {\\n    $.ajax({\\n      url: "\', escape=False)\n        response.write(follow_url(auth.user.id, request.args[0]))\n        response.write(\'",\\n      method: "POST",\\n      dataType: "text",\\n      data: { action : action, user : \', escape=False)\n        response.write(request.args[0])\n        response.write(\' },\\n      success: success_action,\\n      error: function (a, b, c) {\\n        alert(c);\\n      }\\n    })\\n    };\\n  </script>\\n  \', escape=False)\n        pass\n    response.write(\'\\n  \', escape=False)\n    response.write(\'\\n    \', escape=False)\n    if response.google_analytics_id:\n        response.write(\'\\n    <!-- Analytics ==================================== -->\\n    <script src="\', escape=False)\n        response.write(URL(\'static\',\'js/analytics.min.js\'))\n        response.write(\'"></script>\\n    <script type="text/javascript">\\n      analytics.initialize({\\n      \\\'Google Analytics\\\':{trackingId:\\\'\', escape=False)\n        response.write(response.google_analytics_id)\n        response.write("\'}\\n      });\\n    </script>\\n    ", escape=False)\n        pass\n    response.write(\'\\n    <!-- Share ============================y============ -->\\n    <script src="\', escape=False)\n    response.write(URL(\'static\',\'js/share.js\',vars=dict(static=URL(\'static\',\'images\'))))\n    response.write(\'"></script>\\n  </body>\\n</html>\\n\', escape=False)'
p7
sS'snapshot'
p8
(dp9
sS'traceback'
p10
S'None\n'
p11
s.